target datalayout = "e-m:e-p270:32:32-p271:32:32-p272:64:64-i64:64-i128:128-f80:128-n8:16:32:64-S128"
target triple = "x86_64-pc-linux-gnu"

%struct._object = type { %union.anon, ptr }
%union.anon = type { i64 }
%struct.__va_list_tag = type { i32, i32, ptr, ptr }
%struct.anon = type { i32, i32 }

@PyExc_SystemError = external global ptr, align 8
@.str.8 = private unnamed_addr constant [26 x i8] c"Unmatched paren in format\00", align 1

; Function Attrs: alwaysinline nounwind uwtable
define internal i32 @_Py_IsImmortal(ptr noundef %0) #5 {
  %2 = alloca ptr, align 8
  store ptr %0, ptr %2, align 8, !tbaa !4
  %3 = load ptr, ptr %2, align 8, !tbaa !4
  %4 = getelementptr inbounds nuw %struct._object, ptr %3, i32 0, i32 0
  %5 = getelementptr inbounds nuw %struct.anon, ptr %4, i32 0, i32 0
  %6 = load i32, ptr %5, align 8, !tbaa !35
  %7 = icmp slt i32 %6, 0
  %8 = zext i1 %7 to i32
  ret i32 %8
}

; Function Attrs: alwaysinline nounwind uwtable
define internal void @Py_DECREF(ptr noundef %0) #5 {
  %2 = alloca ptr, align 8
  store ptr %0, ptr %2, align 8, !tbaa !4
  %3 = load ptr, ptr %2, align 8, !tbaa !4
  %4 = call i32 @_Py_IsImmortal(ptr noundef %3)
  %5 = icmp ne i32 %4, 0
  br i1 %5, label %6, label %7

6:                                                ; preds = %1
  br label %16

7:                                                ; preds = %1
  %8 = load ptr, ptr %2, align 8, !tbaa !4
  %9 = getelementptr inbounds nuw %struct._object, ptr %8, i32 0, i32 0
  %10 = getelementptr inbounds nuw %struct.anon, ptr %9, i32 0, i32 0
  %11 = load i32, ptr %10, align 8, !tbaa !35
  %12 = add i32 %11, -1
  store i32 %12, ptr %10, align 8, !tbaa !35
  %13 = icmp eq i32 %12, 0
  br i1 %13, label %14, label %16

14:                                               ; preds = %7
  %15 = load ptr, ptr %2, align 8, !tbaa !4
  call void @_Py_Dealloc(ptr noundef %15)
  br label %16

16:                                               ; preds = %6, %14, %7
  ret void
}

; Function Attrs: nounwind uwtable
define internal i32 @check_end(ptr noundef %0, i8 noundef signext %1) #0 {
  %3 = alloca i32, align 4
  %4 = alloca ptr, align 8
  %5 = alloca i8, align 1
  %6 = alloca ptr, align 8
  %7 = alloca i32, align 4
  store ptr %0, ptr %4, align 8, !tbaa !38
  store i8 %1, ptr %5, align 1, !tbaa !35
  call void @llvm.lifetime.start.p0(i64 8, ptr %6) #7
  %8 = load ptr, ptr %4, align 8, !tbaa !38
  %9 = load ptr, ptr %8, align 8, !tbaa !27
  store ptr %9, ptr %6, align 8, !tbaa !27
  br label %10

10:                                               ; preds = %39, %2
  %11 = load ptr, ptr %6, align 8, !tbaa !27
  %12 = load i8, ptr %11, align 1, !tbaa !35
  %13 = sext i8 %12 to i32
  %14 = load i8, ptr %5, align 1, !tbaa !35
  %15 = sext i8 %14 to i32
  %16 = icmp ne i32 %13, %15
  br i1 %16, label %17, label %42

17:                                               ; preds = %10
  %18 = load ptr, ptr %6, align 8, !tbaa !27
  %19 = load i8, ptr %18, align 1, !tbaa !35
  %20 = sext i8 %19 to i32
  %21 = icmp ne i32 %20, 32
  br i1 %21, label %22, label %39

22:                                               ; preds = %17
  %23 = load ptr, ptr %6, align 8, !tbaa !27
  %24 = load i8, ptr %23, align 1, !tbaa !35
  %25 = sext i8 %24 to i32
  %26 = icmp ne i32 %25, 9
  br i1 %26, label %27, label %39

27:                                               ; preds = %22
  %28 = load ptr, ptr %6, align 8, !tbaa !27
  %29 = load i8, ptr %28, align 1, !tbaa !35
  %30 = sext i8 %29 to i32
  %31 = icmp ne i32 %30, 44
  br i1 %31, label %32, label %39

32:                                               ; preds = %27
  %33 = load ptr, ptr %6, align 8, !tbaa !27
  %34 = load i8, ptr %33, align 1, !tbaa !35
  %35 = sext i8 %34 to i32
  %36 = icmp ne i32 %35, 58
  br i1 %36, label %37, label %39

37:                                               ; preds = %32
  %38 = load ptr, ptr @PyExc_SystemError, align 8, !tbaa !4
  call void @PyErr_SetString(ptr noundef %38, ptr noundef @.str.8)
  store i32 0, ptr %3, align 4
  store i32 1, ptr %7, align 4
  br label %51

39:                                               ; preds = %32, %27, %22, %17
  %40 = load ptr, ptr %6, align 8, !tbaa !27
  %41 = getelementptr i8, ptr %40, i32 1
  store ptr %41, ptr %6, align 8, !tbaa !27
  br label %10, !llvm.loop !55

42:                                               ; preds = %10
  %43 = load i8, ptr %5, align 1, !tbaa !35
  %44 = icmp ne i8 %43, 0
  br i1 %44, label %45, label %48

45:                                               ; preds = %42
  %46 = load ptr, ptr %6, align 8, !tbaa !27
  %47 = getelementptr i8, ptr %46, i32 1
  store ptr %47, ptr %6, align 8, !tbaa !27
  br label %48

48:                                               ; preds = %45, %42
  %49 = load ptr, ptr %6, align 8, !tbaa !27
  %50 = load ptr, ptr %4, align 8, !tbaa !38
  store ptr %49, ptr %50, align 8, !tbaa !27
  store i32 1, ptr %3, align 4
  store i32 1, ptr %7, align 4
  br label %51

51:                                               ; preds = %48, %37
  call void @llvm.lifetime.end.p0(i64 8, ptr %6) #7
  %52 = load i32, ptr %3, align 4
  ret i32 %52
}

; Function Attrs: nounwind uwtable
define internal i32 @do_mkstack(ptr noundef %0, ptr noundef %1, ptr noundef %2, i8 noundef signext %3, i64 noundef %4) #0 {
  %6 = alloca i32, align 4
  %7 = alloca ptr, align 8
  %8 = alloca ptr, align 8
  %9 = alloca ptr, align 8
  %10 = alloca i8, align 1
  %11 = alloca i64, align 8
  %12 = alloca i64, align 8
  %13 = alloca i32, align 4
  %14 = alloca ptr, align 8
  store ptr %0, ptr %7, align 8, !tbaa !30
  store ptr %1, ptr %8, align 8, !tbaa !38
  store ptr %2, ptr %9, align 8, !tbaa !28
  store i8 %3, ptr %10, align 1, !tbaa !35
  store i64 %4, ptr %11, align 8, !tbaa !10
  call void @llvm.lifetime.start.p0(i64 8, ptr %12) #7
  %15 = load i64, ptr %11, align 8, !tbaa !10
  %16 = icmp slt i64 %15, 0
  br i1 %16, label %17, label %18

17:                                               ; preds = %5
  store i32 -1, ptr %6, align 4
  store i32 1, ptr %13, align 4
  br label %70

18:                                               ; preds = %5
  store i64 0, ptr %12, align 8, !tbaa !10
  br label %19

19:                                               ; preds = %45, %18
  %20 = load i64, ptr %12, align 8, !tbaa !10
  %21 = load i64, ptr %11, align 8, !tbaa !10
  %22 = icmp slt i64 %20, %21
  br i1 %22, label %23, label %48

23:                                               ; preds = %19
  call void @llvm.lifetime.start.p0(i64 8, ptr %14) #7
  %24 = load ptr, ptr %8, align 8, !tbaa !38
  %25 = load ptr, ptr %9, align 8, !tbaa !28
  %26 = call ptr @do_mkvalue(ptr noundef %24, ptr noundef %25)
  store ptr %26, ptr %14, align 8, !tbaa !4
  %27 = load ptr, ptr %14, align 8, !tbaa !4
  %28 = icmp eq ptr %27, null
  br i1 %28, label %29, label %37

29:                                               ; preds = %23
  %30 = load ptr, ptr %8, align 8, !tbaa !38
  %31 = load ptr, ptr %9, align 8, !tbaa !28
  %32 = load i8, ptr %10, align 1, !tbaa !35
  %33 = load i64, ptr %11, align 8, !tbaa !10
  %34 = load i64, ptr %12, align 8, !tbaa !10
  %35 = sub i64 %33, %34
  %36 = sub i64 %35, 1
  call void @do_ignore(ptr noundef %30, ptr noundef %31, i8 noundef signext %32, i64 noundef %36)
  store i32 5, ptr %13, align 4
  br label %42

37:                                               ; preds = %23
  %38 = load ptr, ptr %14, align 8, !tbaa !4
  %39 = load ptr, ptr %7, align 8, !tbaa !30
  %40 = load i64, ptr %12, align 8, !tbaa !10
  %41 = getelementptr ptr, ptr %39, i64 %40
  store ptr %38, ptr %41, align 8, !tbaa !4
  store i32 0, ptr %13, align 4
  br label %42

42:                                               ; preds = %29, %37
  call void @llvm.lifetime.end.p0(i64 8, ptr %14) #7
  %43 = load i32, ptr %13, align 4
  switch i32 %43, label %70 [
    i32 0, label %44
    i32 5, label %55
  ]

44:                                               ; preds = %42
  br label %45

45:                                               ; preds = %44
  %46 = load i64, ptr %12, align 8, !tbaa !10
  %47 = add i64 %46, 1
  store i64 %47, ptr %12, align 8, !tbaa !10
  br label %19, !llvm.loop !40

48:                                               ; preds = %19
  %49 = load ptr, ptr %8, align 8, !tbaa !38
  %50 = load i8, ptr %10, align 1, !tbaa !35
  %51 = call i32 @check_end(ptr noundef %49, i8 noundef signext %50)
  %52 = icmp ne i32 %51, 0
  br i1 %52, label %54, label %53

53:                                               ; preds = %48
  br label %55

54:                                               ; preds = %48
  store i32 0, ptr %6, align 4
  store i32 1, ptr %13, align 4
  br label %70

55:                                               ; preds = %42, %53
  %56 = load i64, ptr %12, align 8, !tbaa !10
  store i64 %56, ptr %11, align 8, !tbaa !10
  store i64 0, ptr %12, align 8, !tbaa !10
  br label %57

57:                                               ; preds = %66, %55
  %58 = load i64, ptr %12, align 8, !tbaa !10
  %59 = load i64, ptr %11, align 8, !tbaa !10
  %60 = icmp slt i64 %58, %59
  br i1 %60, label %61, label %69

61:                                               ; preds = %57
  %62 = load ptr, ptr %7, align 8, !tbaa !30
  %63 = load i64, ptr %12, align 8, !tbaa !10
  %64 = getelementptr ptr, ptr %62, i64 %63
  %65 = load ptr, ptr %64, align 8, !tbaa !4
  call void @Py_DECREF(ptr noundef %65)
  br label %66

66:                                               ; preds = %61
  %67 = load i64, ptr %12, align 8, !tbaa !10
  %68 = add i64 %67, 1
  store i64 %68, ptr %12, align 8, !tbaa !10
  br label %57, !llvm.loop !41

69:                                               ; preds = %57
  store i32 -1, ptr %6, align 4
  store i32 1, ptr %13, align 4
  br label %70

70:                                               ; preds = %69, %54, %42, %17
  call void @llvm.lifetime.end.p0(i64 8, ptr %12) #7
  %71 = load i32, ptr %6, align 4
  ret i32 %71
}

; Function Attrs: nounwind uwtable
define hidden ptr @_Py_VaBuildStack(ptr noundef %0, i64 noundef %1, ptr noundef %2, ptr noundef %3, ptr noundef %4) #0 {
  %6 = alloca ptr, align 8
  %7 = alloca ptr, align 8
  %8 = alloca i64, align 8
  %9 = alloca ptr, align 8
  %10 = alloca ptr, align 8
  %11 = alloca ptr, align 8
  %12 = alloca ptr, align 8
  %13 = alloca i64, align 8
  %14 = alloca [1 x %struct.__va_list_tag], align 16
  %15 = alloca ptr, align 8
  %16 = alloca i32, align 4
  %17 = alloca i32, align 4
  store ptr %0, ptr %7, align 8, !tbaa !30
  store i64 %1, ptr %8, align 8, !tbaa !10
  store ptr %2, ptr %9, align 8, !tbaa !27
  store ptr %3, ptr %10, align 8, !tbaa !28
  store ptr %4, ptr %11, align 8, !tbaa !32
  call void @llvm.lifetime.start.p0(i64 8, ptr %12) #7
  call void @llvm.lifetime.start.p0(i64 8, ptr %13) #7
  call void @llvm.lifetime.start.p0(i64 24, ptr %14) #7
  call void @llvm.lifetime.start.p0(i64 8, ptr %15) #7
  call void @llvm.lifetime.start.p0(i64 4, ptr %16) #7
  %18 = load ptr, ptr %9, align 8, !tbaa !27
  %19 = call i64 @countformat(ptr noundef %18, i8 noundef signext 0)
  store i64 %19, ptr %13, align 8, !tbaa !10
  %20 = load i64, ptr %13, align 8, !tbaa !10
  %21 = icmp slt i64 %20, 0
  br i1 %21, label %22, label %24

22:                                               ; preds = %5
  %23 = load ptr, ptr %11, align 8, !tbaa !32
  store i64 0, ptr %23, align 8, !tbaa !10
  store ptr null, ptr %6, align 8
  store i32 1, ptr %17, align 4
  br label %66

24:                                               ; preds = %5
  %25 = load i64, ptr %13, align 8, !tbaa !10
  %26 = icmp eq i64 %25, 0
  br i1 %26, label %27, label %30

27:                                               ; preds = %24
  %28 = load ptr, ptr %11, align 8, !tbaa !32
  store i64 0, ptr %28, align 8, !tbaa !10
  %29 = load ptr, ptr %7, align 8, !tbaa !30
  store ptr %29, ptr %6, align 8
  store i32 1, ptr %17, align 4
  br label %66

30:                                               ; preds = %24
  %31 = load i64, ptr %13, align 8, !tbaa !10
  %32 = load i64, ptr %8, align 8, !tbaa !10
  %33 = icmp sle i64 %31, %32
  br i1 %33, label %34, label %36

34:                                               ; preds = %30
  %35 = load ptr, ptr %7, align 8, !tbaa !30
  store ptr %35, ptr %15, align 8, !tbaa !30
  br label %45

36:                                               ; preds = %30
  %37 = load i64, ptr %13, align 8, !tbaa !10
  %38 = mul i64 %37, 8
  %39 = call ptr @PyMem_Malloc(i64 noundef %38)
  store ptr %39, ptr %15, align 8, !tbaa !30
  %40 = load ptr, ptr %15, align 8, !tbaa !30
  %41 = icmp eq ptr %40, null
  br i1 %41, label %42, label %44

42:                                               ; preds = %36
  %43 = call ptr @PyErr_NoMemory()
  store ptr null, ptr %6, align 8
  store i32 1, ptr %17, align 4
  br label %66

44:                                               ; preds = %36
  br label %45

45:                                               ; preds = %44, %34
  %46 = getelementptr inbounds [1 x %struct.__va_list_tag], ptr %14, i64 0, i64 0
  %47 = load ptr, ptr %10, align 8, !tbaa !28
  call void @llvm.va_copy.p0(ptr %46, ptr %47)
  %48 = load ptr, ptr %9, align 8, !tbaa !27
  store ptr %48, ptr %12, align 8, !tbaa !27
  %49 = load ptr, ptr %15, align 8, !tbaa !30
  %50 = load i64, ptr %13, align 8, !tbaa !10
  %51 = call i32 @do_mkstack(ptr noundef %49, ptr noundef %12, ptr noundef %14, i8 noundef signext 0, i64 noundef %50)
  store i32 %51, ptr %16, align 4, !tbaa !34
  %52 = getelementptr inbounds [1 x %struct.__va_list_tag], ptr %14, i64 0, i64 0
  call void @llvm.va_end.p0(ptr %52)
  %53 = load i32, ptr %16, align 4, !tbaa !34
  %54 = icmp slt i32 %53, 0
  br i1 %54, label %55, label %62

55:                                               ; preds = %45
  %56 = load ptr, ptr %15, align 8, !tbaa !30
  %57 = load ptr, ptr %7, align 8, !tbaa !30
  %58 = icmp ne ptr %56, %57
  br i1 %58, label %59, label %61

59:                                               ; preds = %55
  %60 = load ptr, ptr %15, align 8, !tbaa !30
  call void @PyMem_Free(ptr noundef %60)
  br label %61

61:                                               ; preds = %59, %55
  store ptr null, ptr %6, align 8
  store i32 1, ptr %17, align 4
  br label %66

62:                                               ; preds = %45
  %63 = load i64, ptr %13, align 8, !tbaa !10
  %64 = load ptr, ptr %11, align 8, !tbaa !32
  store i64 %63, ptr %64, align 8, !tbaa !10
  %65 = load ptr, ptr %15, align 8, !tbaa !30
  store ptr %65, ptr %6, align 8
  store i32 1, ptr %17, align 4
  br label %66

66:                                               ; preds = %62, %61, %42, %27, %22
  call void @llvm.lifetime.end.p0(i64 4, ptr %16) #7
  call void @llvm.lifetime.end.p0(i64 8, ptr %15) #7
  call void @llvm.lifetime.end.p0(i64 24, ptr %14) #7
  call void @llvm.lifetime.end.p0(i64 8, ptr %13) #7
  call void @llvm.lifetime.end.p0(i64 8, ptr %12) #7
  %67 = load ptr, ptr %6, align 8
  ret ptr %67
}