; Function Attrs: nounwind uwtable
define hidden ptr @_Py_VaBuildStack(ptr noundef %0, i64 noundef %1, ptr noundef %2, ptr noundef %3, ptr noundef writeonly captures(none) %4) local_unnamed_addr #0 {
  %6 = alloca ptr, align 8
  %7 = alloca [1 x %struct.__va_list_tag], align 16
  call void @llvm.lifetime.start.p0(i64 8, ptr nonnull %6) #7
  call void @llvm.lifetime.start.p0(i64 24, ptr nonnull %7) #7
  %8 = tail call fastcc i64 @countformat(ptr noundef %2, i8 noundef signext 0)
  %9 = icmp slt i64 %8, 0
  br i1 %9, label %10, label %11

10:                                               ; preds = %5
  store i64 0, ptr %4, align 8, !tbaa !25
  br label %48

11:                                               ; preds = %5
  %12 = icmp eq i64 %8, 0
  br i1 %12, label %13, label %14

13:                                               ; preds = %11
  store i64 0, ptr %4, align 8, !tbaa !25
  br label %48

14:                                               ; preds = %11
  %.not = icmp sgt i64 %8, %1
  br i1 %.not, label %15, label %21

15:                                               ; preds = %14
  %16 = shl i64 %8, 3
  %17 = tail call ptr @PyMem_Malloc(i64 noundef %16) #7
  %18 = icmp eq ptr %17, null
  br i1 %18, label %19, label %21

19:                                               ; preds = %15
  %20 = tail call ptr @PyErr_NoMemory() #7
  br label %48

21:                                               ; preds = %14, %15
  %.022 = phi ptr [ %17, %15 ], [ %0, %14 ]
  call void @llvm.va_copy.p0(ptr nonnull %7, ptr %3)
  store ptr %2, ptr %6, align 8, !tbaa !26
  br label %22

22:                                               ; preds = %25, %21
  %.02534.i = phi i64 [ 0, %21 ], [ %27, %25 ]
  %23 = call fastcc ptr @do_mkvalue(ptr noundef nonnull %6, ptr noundef nonnull %7)
  %24 = icmp eq ptr %23, null
  br i1 %24, label %36, label %25

25:                                               ; preds = %22
  %26 = getelementptr ptr, ptr %.022, i64 %.02534.i
  store ptr %23, ptr %26, align 8, !tbaa !23
  %27 = add nuw nsw i64 %.02534.i, 1
  %exitcond.not.i = icmp eq i64 %27, %8
  br i1 %exitcond.not.i, label %28, label %22, !llvm.loop !27

28:                                               ; preds = %25
  %29 = load ptr, ptr %6, align 8, !tbaa !26
  %30 = load i8, ptr %29, align 1, !tbaa !29
  %.not20.i.i = icmp eq i8 %30, 0
  br i1 %.not20.i.i, label %.loopexit27, label %.lr.ph.i.i

.lr.ph.i.i:                                       ; preds = %28, %33
  %31 = phi i8 [ %35, %33 ], [ %30, %28 ]
  %.021.i.i = phi ptr [ %34, %33 ], [ %29, %28 ]
  switch i8 %31, label %.thread.i [
    i8 32, label %33
    i8 9, label %33
    i8 44, label %33
    i8 58, label %33
  ]

.thread.i:                                        ; preds = %.lr.ph.i.i
  %32 = load ptr, ptr @PyExc_SystemError, align 8, !tbaa !23
  call void @PyErr_SetString(ptr noundef %32, ptr noundef nonnull @.str.8) #7
  br label %.lr.ph.preheader.i

33:                                               ; preds = %.lr.ph.i.i, %.lr.ph.i.i, %.lr.ph.i.i, %.lr.ph.i.i
  %34 = getelementptr i8, ptr %.021.i.i, i64 1
  %35 = load i8, ptr %34, align 1, !tbaa !29
  %.not.i28.i = icmp eq i8 %35, 0
  br i1 %.not.i28.i, label %.loopexit27, label %.lr.ph.i.i, !llvm.loop !30

36:                                               ; preds = %22
  %37 = xor i64 %.02534.i, -1
  %38 = add nsw i64 %8, %37
  call fastcc void @do_ignore(ptr noundef nonnull %6, ptr noundef nonnull %7, i8 noundef signext 0, i64 noundef %38)
  %.not.i = icmp eq i64 %.02534.i, 0
  br i1 %.not.i, label %.loopexit, label %.lr.ph.preheader.i

.lr.ph.preheader.i:                               ; preds = %36, %.thread.i
  %.0253341.i = phi i64 [ %8, %.thread.i ], [ %.02534.i, %36 ]
  br label %.lr.ph.i

.lr.ph.i:                                         ; preds = %Py_DECREF.exit.i, %.lr.ph.preheader.i
  %.135.i = phi i64 [ %46, %Py_DECREF.exit.i ], [ 0, %.lr.ph.preheader.i ]
  %39 = getelementptr ptr, ptr %.022, i64 %.135.i
  %40 = load ptr, ptr %39, align 8, !tbaa !23
  %41 = load i32, ptr %40, align 8, !tbaa !29
  %.not.i.i = icmp sgt i32 %41, -1
  br i1 %.not.i.i, label %42, label %Py_DECREF.exit.i

42:                                               ; preds = %.lr.ph.i
  %43 = add nsw i32 %41, -1
  store i32 %43, ptr %40, align 8, !tbaa !29
  %44 = icmp eq i32 %43, 0
  br i1 %44, label %45, label %Py_DECREF.exit.i

45:                                               ; preds = %42
  call void @_Py_Dealloc(ptr noundef nonnull %40) #7
  br label %Py_DECREF.exit.i

Py_DECREF.exit.i:                                 ; preds = %45, %42, %.lr.ph.i
  %46 = add nuw nsw i64 %.135.i, 1
  %exitcond38.not.i = icmp eq i64 %46, %.0253341.i
  br i1 %exitcond38.not.i, label %.loopexit, label %.lr.ph.i, !llvm.loop !31

.loopexit:                                        ; preds = %Py_DECREF.exit.i, %36
  call void @llvm.va_end.p0(ptr nonnull %7)
  %.not25 = icmp eq ptr %.022, %0
  br i1 %.not25, label %48, label %47

47:                                               ; preds = %.loopexit
  call void @PyMem_Free(ptr noundef %.022) #7
  br label %48

.loopexit27:                                      ; preds = %33, %28
  call void @llvm.va_end.p0(ptr nonnull %7)
  store i64 %8, ptr %4, align 8, !tbaa !25
  br label %48

48:                                               ; preds = %.loopexit, %47, %.loopexit27, %19, %13, %10
  %.0 = phi ptr [ null, %10 ], [ %0, %13 ], [ %.022, %.loopexit27 ], [ null, %19 ], [ null, %47 ], [ null, %.loopexit ]
  call void @llvm.lifetime.end.p0(i64 24, ptr nonnull %7) #7
  call void @llvm.lifetime.end.p0(i64 8, ptr nonnull %6) #7
  ret ptr %.0
}